; Function Attrs: mustprogress uwtable
define void @_ZN3gmx32KeyValueTreeTransformRulesScopedC2EPNS_8internal27KeyValueTreeTransformerImplERKNS_16KeyValueTreePathE(ptr nocapture noundef nonnull writeonly align 8 dereferenceable(8) %0, ptr noundef %1, ptr noundef nonnull align 8 dereferenceable(24) %2) unnamed_addr #3 align 2 personality ptr @__gxx_personality_v0 {
  %4 = tail call noalias noundef nonnull dereferenceable(40) ptr @_Znwm(i64 noundef 40) #24
  store ptr getelementptr inbounds inrange(-16, 32) ({ [6 x ptr] }, ptr @_ZTVN3gmx32KeyValueTreeTransformRulesScoped4ImplE, i64 0, i32 0, i64 2), ptr %4, align 8
  %5 = getelementptr inbounds i8, ptr %4, i64 8
  store ptr %1, ptr %5, align 8
  %6 = getelementptr inbounds i8, ptr %4, i64 16
  invoke void @_ZNSt6vectorINSt7__cxx1112basic_stringIcSt11char_traitsIcESaIcEEESaIS5_EEC2ERKS7_(ptr noundef nonnull align 8 dereferenceable(24) %6, ptr noundef nonnull align 8 dereferenceable(24) %2)
          to label %_ZN3gmx32KeyValueTreeTransformRulesScoped4ImplC2EPNS_8internal27KeyValueTreeTransformerImplERKNS_16KeyValueTreePathE.exit unwind label %7

_ZN3gmx32KeyValueTreeTransformRulesScoped4ImplC2EPNS_8internal27KeyValueTreeTransformerImplERKNS_16KeyValueTreePathE.exit: ; preds = %3
  store ptr %4, ptr %0, align 8
  ret void

7:                                                ; preds = %3
  %8 = landingpad { ptr, i32 }
          cleanup
  tail call void @_ZdlPv(ptr noundef nonnull %4) #25
  resume { ptr, i32 } %8
}